Certificate:
    Data:
        Version: 3 (0x2)
        Serial Number:
            43:20:cc:02:a0:18:10:68:c7:89:a0:28:57:13:f0:00:bf:50:5a:63
        Signature Algorithm: sha256WithRSAEncryption
        Issuer: C=US, ST=North Carolina, L=Raleigh, O=Katello, OU=SomeOrgUnit, CN=satellite.lab
        Validity
            Not Before: Feb 25 20:23:59 2025 GMT
            Not After : Jan 17 20:23:59 2038 GMT
        Subject: C=US, ST=North Carolina, O=FOREMAN, OU=SMART_PROXY, CN=satellite.lab
        Subject Public Key Info:
            Public Key Algorithm: rsaEncryption
                Public-Key: (4096 bit)
                Modulus:
                    00:b3:c3:9d:7d:95:22:ed:7d:f9:a3:8e:59:3d:1c:
                    19:29:ab:55:ae:d3:b2:2b:79:28:a7:13:73:cf:02:
                    c7:3b:57:b2:d7:a3:e9:15:d1:74:de:89:6c:95:cf:
                    d9:17:24:4f:d7:9f:7b:b1:3b:2a:7b:0f:b2:2c:ff:
                    80:9d:c1:34:05:ed:2a:ab:29:65:5e:10:73:aa:3f:
                    42:fe:8f:ab:ed:22:fc:b4:9a:69:32:1f:cb:ca:22:
                    ca:4e:57:70:9c:fe:b8:84:c4:d6:8f:12:db:82:9f:
                    6b:ff:e4:18:ad:b3:dd:01:44:00:77:d6:f4:19:5a:
                    28:65:cf:9a:c8:c6:1f:8f:46:d0:50:42:78:8b:63:
                    32:bb:f7:77:c7:92:31:25:50:ec:fa:50:11:b5:1d:
                    1e:14:37:d0:40:6d:a7:30:30:8c:1e:2d:70:a7:56:
                    41:d0:f1:09:79:77:d5:de:39:02:77:3a:75:33:cf:
                    2b:66:33:13:e9:ce:fc:49:0d:30:eb:84:a2:9a:8b:
                    c5:40:57:cd:90:a4:12:bf:d1:ca:82:87:d7:ce:38:
                    58:86:f5:22:2f:2a:7e:b0:9f:06:16:08:80:16:2b:
                    98:29:46:fc:4f:a6:03:dc:98:41:93:1e:a0:b6:4d:
                    db:41:cf:54:5a:c2:1d:1a:72:47:f5:f2:17:91:6d:
                    6d:8b:af:e6:4a:ca:55:50:52:8d:81:02:2a:66:79:
                    6b:74:8f:6e:2f:96:62:2a:89:e1:d6:ef:1a:8f:3e:
                    8f:95:d3:8d:94:af:b5:f8:b2:af:8a:e4:a6:2c:ce:
                    d2:c8:8c:a9:e2:8c:d1:9c:16:c9:fc:71:b0:ee:c2:
                    d2:3d:76:f8:5c:a0:23:d5:00:3d:07:91:8d:c5:94:
                    d2:70:b5:aa:95:a9:71:be:c3:8c:8a:12:f5:26:0e:
                    9c:98:e1:1c:16:37:8e:85:c4:e8:e5:fc:a9:28:9a:
                    a2:26:56:80:e2:68:f1:21:88:37:30:53:61:4c:68:
                    a2:60:62:0e:84:bd:e5:a3:89:dc:a1:b2:9b:7d:a0:
                    42:3a:ce:7c:c9:93:9a:99:f0:f4:04:ea:ba:a6:65:
                    26:43:7f:77:d6:ec:e8:b9:3a:cc:3b:ee:83:82:e5:
                    b8:c4:05:18:1c:5f:50:a9:b7:ea:1c:63:be:79:4e:
                    0e:6d:2b:40:c2:7e:94:56:15:da:e4:17:3e:ad:cb:
                    9c:c1:6c:5b:c8:69:d2:50:e8:88:5b:b3:cd:d3:31:
                    52:93:d4:15:6c:d7:e4:cb:30:da:25:a7:ec:fa:a4:
                    56:d7:d0:46:ea:69:ef:6c:b8:73:62:4b:fa:3b:90:
                    11:32:f2:8a:5a:b1:2e:28:b0:6d:83:2d:cd:cc:ec:
                    eb:8c:a3
                Exponent: 65537 (0x10001)
        X509v3 extensions:
            X509v3 Basic Constraints: 
                CA:FALSE
            X509v3 Key Usage: 
                Digital Signature, Key Encipherment
            X509v3 Extended Key Usage: 
                TLS Web Server Authentication, TLS Web Client Authentication
            Netscape Cert Type: 
                SSL Server
            Netscape Comment: 
                Katello SSL Tool Generated Certificate
            X509v3 Subject Key Identifier: 
                69:B0:45:19:7E:C1:46:0D:2C:C2:65:24:A5:D6:DD:5A:B9:83:90:F4
            X509v3 Authority Key Identifier: 
                keyid:57:2D:1D:A8:0B:34:E9:99:63:FB:C1:E2:8A:7E:E1:94:9B:98:0A:D4
                DirName:/C=US/ST=North Carolina/L=Raleigh/O=Katello/OU=SomeOrgUnit/CN=satellite.lab
                serial:43:20:CC:02:A0:18:10:68:C7:89:A0:28:57:13:F0:00:BF:50:5A:5F
            X509v3 Subject Alternative Name: 
                DNS:satellite.lab
    Signature Algorithm: sha256WithRSAEncryption
    Signature Value:
        c1:62:6c:9b:ca:62:ff:b4:69:b6:48:c2:5f:c5:0e:54:8b:5a:
        92:fa:b3:fe:fb:72:7d:e2:cc:0c:2d:b3:81:7a:ad:b9:b2:80:
        2e:ec:26:89:25:25:8a:06:99:d1:19:56:9e:fc:c8:5d:40:6f:
        f3:50:89:b3:4e:8d:1a:8a:98:9b:f7:4d:14:95:3f:9e:0b:ed:
        dc:8a:68:ae:22:34:28:a4:32:0a:ed:15:15:bb:de:5a:d4:61:
        b7:3d:41:90:34:2e:f7:33:dd:72:1f:fc:94:c0:dd:db:ff:cc:
        ab:8a:62:65:8c:02:5d:33:06:7a:82:1a:50:20:4c:d1:65:4e:
        3a:dd:61:53:88:bb:d8:23:00:a3:0b:6f:a3:79:d5:02:e6:79:
        b1:71:ad:4f:7b:a3:de:a4:75:bd:3f:c9:72:3b:ff:4f:50:6f:
        38:6a:45:84:7c:75:ab:01:93:76:b2:01:a1:bd:e0:3d:30:6b:
        85:21:d1:c4:1a:9b:32:05:6e:e2:1b:14:36:0d:59:09:bf:b0:
        22:19:0c:83:90:a6:14:35:e8:49:f6:22:e3:f7:96:0a:63:1f:
        d0:f8:a0:74:13:bf:94:9e:53:a5:f4:0f:91:38:8a:3e:05:93:
        6c:56:e1:13:10:79:bd:d9:cb:e1:d6:81:c8:4a:7c:39:0b:b4:
        fe:af:07:88:d8:d2:59:ac:9c:78:d7:de:f7:27:44:4d:4d:12:
        17:63:02:2d:39:40:15:f4:fd:ef:96:35:02:cc:6f:26:1d:2f:
        4b:cc:d3:5f:61:60:70:74:e7:2e:82:76:66:b9:43:fc:e7:b8:
        21:4b:8f:40:a8:ae:58:ee:cd:21:0d:01:d3:a8:d9:05:93:f2:
        b1:ff:73:43:97:a9:be:92:53:56:91:c6:06:29:60:44:7d:95:
        3b:d0:f9:c4:92:07:38:9c:20:bb:9d:87:e6:91:0a:b8:66:44:
        10:27:e3:ae:85:1c:ea:a8:c5:13:4a:9c:fa:49:e4:b9:3b:f2:
        bf:a2:ae:fc:42:98:bd:41:fa:2c:e4:b0:b4:ab:5b:91:8f:29:
        47:65:8a:54:b0:4e:0b:08:ec:c8:e9:30:b5:94:9b:3a:54:76:
        82:84:36:4b:0d:8f:34:5a:5b:fa:9b:35:76:d6:f3:6f:85:05:
        60:73:01:14:7c:09:d6:52:55:b1:9a:2f:de:de:fb:5b:ea:9e:
        05:f2:0b:f9:72:51:97:78:a8:0d:ea:73:96:5b:d7:b4:3d:d2:
        02:5e:4e:ab:3e:d8:d0:19:5d:b4:2a:64:14:11:6c:7f:4d:96:
        e0:2a:d2:18:c0:f6:e5:91:a4:9b:d8:2f:8d:d3:17:b3:fb:7e:
        e5:99:69:26:0c:cf:cd:cb
-----BEGIN CERTIFICATE-----
MIIG5DCCBMygAwIBAgIUQyDMAqAYEGjHiaAoVxPwAL9QWmMwDQYJKoZIhvcNAQEL
BQAweDELMAkGA1UEBhMCVVMxFzAVBgNVBAgMDk5vcnRoIENhcm9saW5hMRAwDgYD
VQQHDAdSYWxlaWdoMRAwDgYDVQQKDAdLYXRlbGxvMRQwEgYDVQQLDAtTb21lT3Jn
VW5pdDEWMBQGA1UEAwwNc2F0ZWxsaXRlLmxhYjAeFw0yNTAyMjUyMDIzNTlaFw0z
ODAxMTcyMDIzNTlaMGYxCzAJBgNVBAYTAlVTMRcwFQYDVQQIDA5Ob3J0aCBDYXJv
bGluYTEQMA4GA1UECgwHRk9SRU1BTjEUMBIGA1UECwwLU01BUlRfUFJPWFkxFjAU
BgNVBAMMDXNhdGVsbGl0ZS5sYWIwggIiMA0GCSqGSIb3DQEBAQUAA4ICDwAwggIK
AoICAQCzw519lSLtffmjjlk9HBkpq1Wu07IreSinE3PPAsc7V7LXo+kV0XTeiWyV
z9kXJE/Xn3uxOyp7D7Is/4CdwTQF7SqrKWVeEHOqP0L+j6vtIvy0mmkyH8vKIspO
V3Cc/riExNaPEtuCn2v/5Bits90BRAB31vQZWihlz5rIxh+PRtBQQniLYzK793fH
kjElUOz6UBG1HR4UN9BAbacwMIweLXCnVkHQ8Ql5d9XeOQJ3OnUzzytmMxPpzvxJ
DTDrhKKai8VAV82QpBK/0cqCh9fOOFiG9SIvKn6wnwYWCIAWK5gpRvxPpgPcmEGT
HqC2TdtBz1Rawh0ackf18heRbW2Lr+ZKylVQUo2BAipmeWt0j24vlmIqieHW7xqP
Po+V042Ur7X4sq+K5KYsztLIjKnijNGcFsn8cbDuwtI9dvhcoCPVAD0HkY3FlNJw
taqVqXG+w4yKEvUmDpyY4RwWN46FxOjl/KkomqImVoDiaPEhiDcwU2FMaKJgYg6E
veWjidyhspt9oEI6znzJk5qZ8PQE6rqmZSZDf3fW7Oi5Osw77oOC5bjEBRgcX1Cp
t+ocY755Tg5tK0DCfpRWFdrkFz6ty5zBbFvIadJQ6Ihbs83TMVKT1BVs1+TLMNol
p+z6pFbX0Ebqae9suHNiS/o7kBEy8opasS4osG2DLc3M7OuMowIDAQABo4IBdjCC
AXIwCQYDVR0TBAIwADALBgNVHQ8EBAMCBaAwHQYDVR0lBBYwFAYIKwYBBQUHAwEG
CCsGAQUFBwMCMBEGCWCGSAGG+EIBAQQEAwIGQDA1BglghkgBhvhCAQ0EKBYmS2F0
ZWxsbyBTU0wgVG9vbCBHZW5lcmF0ZWQgQ2VydGlmaWNhdGUwHQYDVR0OBBYEFGmw
RRl+wUYNLMJlJKXW3Vq5g5D0MIG1BgNVHSMEga0wgaqAFFctHagLNOmZY/vB4op+
4ZSbmArUoXykejB4MQswCQYDVQQGEwJVUzEXMBUGA1UECAwOTm9ydGggQ2Fyb2xp
bmExEDAOBgNVBAcMB1JhbGVpZ2gxEDAOBgNVBAoMB0thdGVsbG8xFDASBgNVBAsM
C1NvbWVPcmdVbml0MRYwFAYDVQQDDA1zYXRlbGxpdGUubGFighRDIMwCoBgQaMeJ
oChXE/AAv1BaXzAYBgNVHREEETAPgg1zYXRlbGxpdGUubGFiMA0GCSqGSIb3DQEB
CwUAA4ICAQDBYmybymL/tGm2SMJfxQ5Ui1qS+rP++3J94swMLbOBeq25soAu7CaJ
JSWKBpnRGVae/MhdQG/zUImzTo0aipib900UlT+eC+3cimiuIjQopDIK7RUVu95a
1GG3PUGQNC73M91yH/yUwN3b/8yrimJljAJdMwZ6ghpQIEzRZU463WFTiLvYIwCj
C2+jedUC5nmxca1Pe6PepHW9P8lyO/9PUG84akWEfHWrAZN2sgGhveA9MGuFIdHE
GpsyBW7iGxQ2DVkJv7AiGQyDkKYUNehJ9iLj95YKYx/Q+KB0E7+UnlOl9A+ROIo+
BZNsVuETEHm92cvh1oHISnw5C7T+rweI2NJZrJx41973J0RNTRIXYwItOUAV9P3v
ljUCzG8mHS9LzNNfYWBwdOcugnZmuUP857ghS49AqK5Y7s0hDQHTqNkFk/Kx/3ND
l6m+klNWkcYGKWBEfZU70PnEkgc4nCC7nYfmkQq4ZkQQJ+OuhRzqqMUTSpz6SeS5
O/K/oq78Qpi9Qfos5LC0q1uRjylHZYpUsE4LCOzI6TC1lJs6VHaChDZLDY80Wlv6
mzV21vNvhQVgcwEUfAnWUlWxmi/e3vtb6p4F8gv5clGXeKgN6nOWW9e0PdICXk6r
PtjQGV20KmQUEWx/TZbgKtIYwPblkaSb2C+N0xez+37lmWkmDM/Nyw==
-----END CERTIFICATE-----
