Certificate:
    Data:
        Version: 3 (0x2)
        Serial Number:
            43:20:cc:02:a0:18:10:68:c7:89:a0:28:57:13:f0:00:bf:50:5a:61
        Signature Algorithm: sha256WithRSAEncryption
        Issuer: C=US, ST=North Carolina, L=Raleigh, O=Katello, OU=SomeOrgUnit, CN=satellite.lab
        Validity
            Not Before: Feb 25 20:23:57 2025 GMT
            Not After : Jan 17 20:23:58 2038 GMT
        Subject: C=US, ST=North Carolina, O=FOREMAN, OU=PUPPET, CN=satellite.lab
        Subject Public Key Info:
            Public Key Algorithm: rsaEncryption
                Public-Key: (4096 bit)
                Modulus:
                    00:da:2f:9a:b8:ec:31:d6:d3:13:bf:17:ce:12:e6:
                    03:31:93:44:dc:3d:ea:b9:a3:46:ac:52:eb:39:bb:
                    4a:4b:f9:aa:e2:03:7c:e6:8c:85:60:91:68:b8:ff:
                    2c:3d:78:3a:78:32:5e:1e:b9:43:15:15:8c:0c:1b:
                    e7:e6:e4:75:09:22:c8:3b:53:ca:30:7d:50:f3:04:
                    09:70:88:51:bb:bd:cc:a0:e3:6a:73:d1:40:7f:1f:
                    01:df:b0:06:8e:dc:83:57:4e:00:8d:fa:01:fe:78:
                    0a:b0:6e:35:46:4f:be:ce:2b:7a:52:17:6f:58:73:
                    94:bb:02:f7:05:fc:7b:ef:7e:da:11:82:22:36:4b:
                    a7:ee:57:9d:59:3a:78:dd:ea:41:fe:1d:fb:96:ad:
                    cd:03:c3:72:ff:d5:7a:dc:5b:8f:64:72:79:f4:5c:
                    d2:63:af:4b:ea:1e:7a:77:7e:99:32:46:a4:5b:3b:
                    e4:a0:53:d8:9c:bd:b6:1b:b2:45:22:23:fe:d6:0b:
                    14:af:a0:55:fa:9c:1c:b2:22:7c:a7:84:26:cd:fe:
                    5c:97:fe:f6:4f:2d:2e:d1:01:e7:75:1c:f0:45:6e:
                    d5:0c:dc:64:43:b9:68:8c:36:62:7e:3f:90:9b:43:
                    ac:7d:8c:2e:56:be:32:75:ce:2e:4b:54:7d:c7:0d:
                    e1:cb:97:b5:08:46:24:97:77:dc:5c:5d:18:d8:63:
                    73:ad:8c:39:85:1f:20:7c:86:cf:fb:7e:b6:dd:5a:
                    aa:19:d5:f6:02:59:50:95:28:90:01:c8:ec:67:e5:
                    7f:b2:83:e5:40:6e:a8:9d:6b:59:9e:a4:6c:bf:9c:
                    8f:6b:a5:92:5c:4a:42:6e:ec:83:07:d7:48:5b:dd:
                    89:3e:63:73:8f:e4:be:e6:24:97:c0:dd:4b:c2:ee:
                    2f:e9:24:e6:a0:af:02:a6:08:e4:f4:f8:aa:c4:d4:
                    df:bf:97:40:fa:22:01:96:24:25:32:ed:9b:ee:a2:
                    63:95:1b:a4:e9:d8:a3:45:d0:9a:48:d9:d3:28:67:
                    4c:ce:f8:a2:32:bc:8c:fa:d1:de:48:d9:b1:56:8e:
                    ac:4a:eb:99:5d:4f:d9:36:ee:c6:4c:78:a2:d5:40:
                    f0:89:da:a7:a1:41:fd:07:73:04:48:5e:c2:02:54:
                    a4:6f:20:6d:80:30:fb:d8:1b:ca:da:53:1a:b8:b2:
                    ce:6d:9c:31:79:73:01:b9:0e:9a:e8:64:85:56:b8:
                    fe:34:f8:8a:32:c5:b2:07:04:83:e7:eb:3e:77:09:
                    93:59:35:3e:bc:35:07:47:5b:52:5b:b8:83:92:b0:
                    5e:de:0b:88:b0:cf:f9:23:79:c0:bd:1a:2b:da:db:
                    85:a8:01
                Exponent: 65537 (0x10001)
        X509v3 extensions:
            X509v3 Basic Constraints: 
                CA:FALSE
            X509v3 Key Usage: 
                Digital Signature, Key Encipherment
            X509v3 Extended Key Usage: 
                TLS Web Server Authentication, TLS Web Client Authentication
            Netscape Cert Type: 
                SSL Client
            Netscape Comment: 
                Katello SSL Tool Generated Certificate
            X509v3 Subject Key Identifier: 
                81:A3:8D:B6:0C:59:4F:2A:6F:AD:58:D2:49:FC:84:DC:52:41:1D:3A
            X509v3 Authority Key Identifier: 
                keyid:57:2D:1D:A8:0B:34:E9:99:63:FB:C1:E2:8A:7E:E1:94:9B:98:0A:D4
                DirName:/C=US/ST=North Carolina/L=Raleigh/O=Katello/OU=SomeOrgUnit/CN=satellite.lab
                serial:43:20:CC:02:A0:18:10:68:C7:89:A0:28:57:13:F0:00:BF:50:5A:5F
            X509v3 Subject Alternative Name: 
                DNS:satellite.lab
    Signature Algorithm: sha256WithRSAEncryption
    Signature Value:
        b1:2c:32:59:05:59:10:2b:d3:79:11:66:de:2f:88:40:3c:ac:
        d0:d6:84:93:25:16:5f:44:90:1e:23:7e:dd:9f:71:da:9d:3c:
        58:29:f5:bf:12:2b:a4:24:b5:3c:11:83:53:38:83:ab:7c:22:
        f9:b2:ce:45:4c:e1:4f:31:4f:71:fd:50:74:55:9b:52:97:d1:
        60:3f:fa:93:77:e7:b1:d0:49:ce:d8:48:25:8a:20:ea:ce:d2:
        3a:8d:c8:10:a8:92:1e:c4:a3:6c:b6:2e:ee:5f:1a:34:1a:83:
        3a:fd:02:21:f4:e7:ec:12:52:78:55:20:bf:62:26:6c:ff:c2:
        8c:cb:4a:b7:05:d0:df:7b:03:2d:37:cd:61:65:ab:2e:29:73:
        58:a2:23:5e:3c:c1:ed:5c:17:0c:66:80:94:43:85:0b:d9:07:
        47:47:be:f6:e5:ce:3f:f5:9b:ed:25:e3:a1:65:fd:43:a4:4b:
        79:ff:c1:79:4f:07:c6:ee:82:b6:ef:8a:35:fb:e4:a8:62:0c:
        e2:7d:98:6c:b2:f7:c0:30:c9:a2:68:42:9f:04:8d:75:6a:b1:
        4d:b9:b1:2f:74:52:58:db:e5:66:49:64:53:c6:9f:15:9e:a8:
        6d:0c:9b:53:be:74:82:76:fd:c6:a2:d2:d8:4e:b0:24:fa:ff:
        db:bb:5d:e0:dd:78:64:40:2e:5e:9e:b4:bf:bc:25:34:36:b5:
        27:bc:95:c0:fb:1e:9b:bb:85:4b:63:a8:41:84:d3:5c:05:72:
        d9:c4:ed:1c:b0:63:4e:03:5d:dd:0b:5a:0f:2d:64:fe:1a:a9:
        06:49:33:25:45:cf:6d:ed:3f:fb:f2:01:b5:ec:d9:2f:4b:e5:
        42:f9:77:08:d1:73:27:0f:da:02:20:52:69:b2:0a:f7:05:c0:
        30:32:69:bb:e4:e3:5f:9d:38:09:c2:ed:60:ea:70:9d:c3:61:
        c2:68:e3:86:ac:1e:74:32:99:2c:8a:f0:aa:3e:d4:be:e6:72:
        85:00:32:e0:d6:04:e8:c9:00:e7:b2:8e:ca:d6:8c:b6:c5:89:
        41:77:aa:68:8d:32:3a:b4:e2:b7:4d:c2:bd:39:bd:38:84:ab:
        fd:ef:a4:77:2f:a2:e3:62:c8:2f:b5:02:82:14:8e:20:f7:64:
        6b:54:5d:c1:e0:26:3c:dc:4a:15:67:7c:d9:fb:52:aa:f8:6b:
        4b:ea:aa:f0:dd:92:0a:6a:da:13:bb:80:73:47:61:78:45:e1:
        de:36:d3:6f:f5:a8:49:e5:5a:9b:02:4b:26:69:48:ff:e1:5a:
        e7:f8:89:f3:3a:e8:33:86:f2:77:6d:b6:a8:4d:e4:17:e0:43:
        50:6a:de:e9:62:10:3a:6a
-----BEGIN CERTIFICATE-----
MIIG3zCCBMegAwIBAgIUQyDMAqAYEGjHiaAoVxPwAL9QWmEwDQYJKoZIhvcNAQEL
BQAweDELMAkGA1UEBhMCVVMxFzAVBgNVBAgMDk5vcnRoIENhcm9saW5hMRAwDgYD
VQQHDAdSYWxlaWdoMRAwDgYDVQQKDAdLYXRlbGxvMRQwEgYDVQQLDAtTb21lT3Jn
VW5pdDEWMBQGA1UEAwwNc2F0ZWxsaXRlLmxhYjAeFw0yNTAyMjUyMDIzNTdaFw0z
ODAxMTcyMDIzNThaMGExCzAJBgNVBAYTAlVTMRcwFQYDVQQIDA5Ob3J0aCBDYXJv
bGluYTEQMA4GA1UECgwHRk9SRU1BTjEPMA0GA1UECwwGUFVQUEVUMRYwFAYDVQQD
DA1zYXRlbGxpdGUubGFiMIICIjANBgkqhkiG9w0BAQEFAAOCAg8AMIICCgKCAgEA
2i+auOwx1tMTvxfOEuYDMZNE3D3quaNGrFLrObtKS/mq4gN85oyFYJFouP8sPXg6
eDJeHrlDFRWMDBvn5uR1CSLIO1PKMH1Q8wQJcIhRu73MoONqc9FAfx8B37AGjtyD
V04AjfoB/ngKsG41Rk++zit6UhdvWHOUuwL3Bfx7737aEYIiNkun7ledWTp43epB
/h37lq3NA8Ny/9V63FuPZHJ59FzSY69L6h56d36ZMkakWzvkoFPYnL22G7JFIiP+
1gsUr6BV+pwcsiJ8p4Qmzf5cl/72Ty0u0QHndRzwRW7VDNxkQ7lojDZifj+Qm0Os
fYwuVr4ydc4uS1R9xw3hy5e1CEYkl3fcXF0Y2GNzrYw5hR8gfIbP+3623VqqGdX2
AllQlSiQAcjsZ+V/soPlQG6onWtZnqRsv5yPa6WSXEpCbuyDB9dIW92JPmNzj+S+
5iSXwN1Lwu4v6STmoK8Cpgjk9PiqxNTfv5dA+iIBliQlMu2b7qJjlRuk6dijRdCa
SNnTKGdMzviiMryM+tHeSNmxVo6sSuuZXU/ZNu7GTHii1UDwidqnoUH9B3MESF7C
AlSkbyBtgDD72BvK2lMauLLObZwxeXMBuQ6a6GSFVrj+NPiKMsWyBwSD5+s+dwmT
WTU+vDUHR1tSW7iDkrBe3guIsM/5I3nAvRor2tuFqAECAwEAAaOCAXYwggFyMAkG
A1UdEwQCMAAwCwYDVR0PBAQDAgWgMB0GA1UdJQQWMBQGCCsGAQUFBwMBBggrBgEF
BQcDAjARBglghkgBhvhCAQEEBAMCB4AwNQYJYIZIAYb4QgENBCgWJkthdGVsbG8g
U1NMIFRvb2wgR2VuZXJhdGVkIENlcnRpZmljYXRlMB0GA1UdDgQWBBSBo422DFlP
Km+tWNJJ/ITcUkEdOjCBtQYDVR0jBIGtMIGqgBRXLR2oCzTpmWP7weKKfuGUm5gK
1KF8pHoweDELMAkGA1UEBhMCVVMxFzAVBgNVBAgMDk5vcnRoIENhcm9saW5hMRAw
DgYDVQQHDAdSYWxlaWdoMRAwDgYDVQQKDAdLYXRlbGxvMRQwEgYDVQQLDAtTb21l
T3JnVW5pdDEWMBQGA1UEAwwNc2F0ZWxsaXRlLmxhYoIUQyDMAqAYEGjHiaAoVxPw
AL9QWl8wGAYDVR0RBBEwD4INc2F0ZWxsaXRlLmxhYjANBgkqhkiG9w0BAQsFAAOC
AgEAsSwyWQVZECvTeRFm3i+IQDys0NaEkyUWX0SQHiN+3Z9x2p08WCn1vxIrpCS1
PBGDUziDq3wi+bLORUzhTzFPcf1QdFWbUpfRYD/6k3fnsdBJzthIJYog6s7SOo3I
EKiSHsSjbLYu7l8aNBqDOv0CIfTn7BJSeFUgv2ImbP/CjMtKtwXQ33sDLTfNYWWr
LilzWKIjXjzB7VwXDGaAlEOFC9kHR0e+9uXOP/Wb7SXjoWX9Q6RLef/BeU8Hxu6C
tu+KNfvkqGIM4n2YbLL3wDDJomhCnwSNdWqxTbmxL3RSWNvlZklkU8afFZ6obQyb
U750gnb9xqLS2E6wJPr/27td4N14ZEAuXp60v7wlNDa1J7yVwPsem7uFS2OoQYTT
XAVy2cTtHLBjTgNd3QtaDy1k/hqpBkkzJUXPbe0/+/IBtezZL0vlQvl3CNFzJw/a
AiBSabIK9wXAMDJpu+TjX504CcLtYOpwncNhwmjjhqwedDKZLIrwqj7UvuZyhQAy
4NYE6MkA57KOytaMtsWJQXeqaI0yOrTit03CvTm9OISr/e+kdy+i42LIL7UCghSO
IPdka1RdweAmPNxKFWd82ftSqvhrS+qq8N2SCmraE7uAc0dheEXh3jbTb/WoSeVa
mwJLJmlI/+Fa5/iJ8zroM4byd222qE3kF+BDUGre6WIQOmo=
-----END CERTIFICATE-----
