Certificate:
    Data:
        Version: 3 (0x2)
        Serial Number:
            43:20:cc:02:a0:18:10:68:c7:89:a0:28:57:13:f0:00:bf:50:5a:60
        Signature Algorithm: sha256WithRSAEncryption
        Issuer: C=US, ST=North Carolina, L=Raleigh, O=Katello, OU=SomeOrgUnit, CN=satellite.lab
        Validity
            Not Before: Feb 25 20:23:56 2025 GMT
            Not After : Jan 17 20:23:57 2038 GMT
        Subject: C=US, ST=North Carolina, O=Katello, OU=SomeOrgUnit, CN=satellite.lab
        Subject Public Key Info:
            Public Key Algorithm: rsaEncryption
                Public-Key: (4096 bit)
                Modulus:
                    00:b2:55:bf:c2:35:f1:de:cd:85:b4:fb:bd:87:de:
                    8c:4a:1f:bb:7b:e5:47:a2:05:07:5a:ad:32:bc:d2:
                    f1:04:80:24:ab:4f:c2:95:a8:a8:f2:c1:76:ea:bf:
                    19:78:9d:a2:42:b3:dc:0a:2f:e7:24:8e:2f:0e:0c:
                    03:5e:24:4b:64:ee:c3:a8:68:9f:42:39:1a:ad:40:
                    6d:f1:52:8e:c1:1f:e4:17:06:df:0a:09:c2:67:e0:
                    51:6e:0c:8f:a6:aa:b6:77:74:61:5c:19:c3:7d:71:
                    58:04:06:0c:d5:4e:41:8c:25:61:07:85:47:87:b7:
                    58:84:6b:fe:75:42:fe:2e:ef:14:93:be:06:57:f0:
                    75:a3:92:fd:c8:a0:66:15:60:13:03:29:a6:e7:e7:
                    b8:56:e9:82:59:f0:9f:8f:dd:0b:55:42:cc:07:8d:
                    2d:e4:18:50:6a:00:82:1c:59:03:75:0e:ec:0b:e5:
                    c0:a2:98:10:54:0e:89:6e:a4:33:a3:7e:5b:d7:fc:
                    bc:36:d7:d8:65:a9:39:1f:8b:c3:cc:87:f9:36:5f:
                    20:04:72:83:2c:5e:7b:e1:6b:ce:15:70:c1:26:50:
                    7b:37:15:12:27:51:4f:18:15:96:81:89:6c:02:a1:
                    d5:ad:50:79:22:56:c9:c7:91:ca:bb:18:9f:32:28:
                    63:26:7d:46:09:f1:fa:6d:6d:27:b5:88:93:6e:75:
                    7e:15:7f:08:88:c4:a8:c5:a1:6c:bf:00:de:e1:43:
                    91:e6:eb:4d:08:54:00:f6:1d:d0:ba:53:e5:3b:1e:
                    04:71:93:8c:62:1e:74:93:35:74:8c:7b:5a:aa:41:
                    8c:59:0a:1b:13:cd:e2:38:4d:a7:6a:af:c8:9e:40:
                    32:f8:23:6d:63:7e:47:34:47:d4:d1:9f:ac:d6:cc:
                    72:dc:41:1f:ef:09:0d:8f:40:df:f6:15:20:ac:6f:
                    ee:44:38:2a:27:d9:af:26:29:2b:ef:3e:4a:20:08:
                    0a:96:56:62:a4:98:1d:77:51:63:c3:53:df:66:7f:
                    2c:f0:6b:6e:81:d8:97:48:d4:2b:86:47:95:0d:4f:
                    ea:44:f6:e8:e6:c8:6b:93:a5:9a:89:a4:99:94:d7:
                    09:e9:e0:7f:44:7d:d6:5c:1f:d6:c4:bb:92:ca:f5:
                    4c:05:b8:d2:3e:b8:92:81:76:4b:e2:32:40:32:df:
                    c1:07:ab:48:44:2f:7b:52:7c:59:ed:10:fa:70:70:
                    eb:cb:5e:58:c2:73:4f:ea:9b:7f:0c:81:58:9e:f6:
                    a3:be:94:50:3b:db:56:e2:6f:95:32:a7:30:f2:d8:
                    00:80:3a:29:b7:fe:16:26:57:61:d9:98:d0:a1:43:
                    fa:8d:3d
                Exponent: 65537 (0x10001)
        X509v3 extensions:
            X509v3 Basic Constraints: 
                CA:FALSE
            X509v3 Key Usage: 
                Digital Signature, Key Encipherment
            X509v3 Extended Key Usage: 
                TLS Web Server Authentication, TLS Web Client Authentication
            Netscape Cert Type: 
                SSL Server
            Netscape Comment: 
                Katello SSL Tool Generated Certificate
            X509v3 Subject Key Identifier: 
                FF:59:42:DE:8E:3C:B0:8C:20:2A:4D:FC:4C:66:9D:54:02:40:18:1E
            X509v3 Authority Key Identifier: 
                keyid:57:2D:1D:A8:0B:34:E9:99:63:FB:C1:E2:8A:7E:E1:94:9B:98:0A:D4
                DirName:/C=US/ST=North Carolina/L=Raleigh/O=Katello/OU=SomeOrgUnit/CN=satellite.lab
                serial:43:20:CC:02:A0:18:10:68:C7:89:A0:28:57:13:F0:00:BF:50:5A:5F
            X509v3 Subject Alternative Name: 
                DNS:satellite.lab
    Signature Algorithm: sha256WithRSAEncryption
    Signature Value:
        6e:1d:10:5a:0a:4b:fc:1a:d5:36:d6:9f:f9:80:b3:41:88:78:
        28:b2:c2:fd:31:5d:9a:8c:d9:30:a7:ff:1c:1d:c8:47:a2:00:
        54:b0:41:45:b8:3f:30:dd:02:cf:dd:05:2e:c0:73:aa:fd:16:
        28:88:8b:5f:d9:9b:9b:37:d2:b0:50:41:44:58:f5:47:29:7d:
        68:a0:30:9c:a9:55:a4:5c:60:6e:a2:15:e2:de:38:0c:49:fb:
        b9:03:c5:f2:6b:8f:e1:9c:92:40:52:c0:30:3c:2c:b4:a3:9d:
        d4:bc:e2:bb:04:7f:8b:39:1a:97:fb:9e:00:e0:7d:f1:49:13:
        c6:dd:58:c5:04:63:be:9b:af:9c:ec:bf:55:16:ba:43:f0:2d:
        a1:24:89:ed:4d:05:cb:c2:22:81:4e:31:46:97:38:11:e8:d9:
        65:cf:8a:ed:4d:50:22:93:84:16:e5:ab:70:d6:dd:d7:da:0d:
        da:bc:d7:6a:bf:7f:a3:bd:bc:0b:23:1f:cb:ea:43:ca:3b:ae:
        56:a3:6f:c6:10:88:40:2d:19:6c:c1:6a:af:b2:41:5a:38:5f:
        9e:9d:b8:cb:8f:4d:88:bd:04:5f:50:c8:b5:86:a3:92:d5:4a:
        1d:66:36:8a:a3:c1:69:f0:71:13:23:ef:f6:52:81:11:f7:8a:
        76:e9:31:dc:b7:79:74:39:59:aa:ff:05:f5:bc:8c:08:4b:4b:
        7c:df:49:2f:06:23:b4:e6:7c:4b:8b:95:1c:22:81:b8:19:47:
        36:23:2e:3a:36:da:b7:86:1c:b7:69:58:f7:99:c7:44:cf:69:
        d5:72:ec:5c:2e:7a:f1:91:f8:2b:d0:44:be:45:3e:9f:a0:7e:
        4a:d6:3c:58:65:f8:f3:28:30:dd:7e:2b:61:45:01:12:93:ed:
        02:94:e3:99:dd:78:f3:68:91:02:33:b5:c5:85:b5:4e:b8:5a:
        3c:c1:9d:e3:37:79:5c:7b:da:55:57:64:92:3b:aa:2e:fd:47:
        77:f7:87:e9:56:2e:23:34:4b:5c:e9:19:7f:94:07:15:c2:e4:
        df:55:61:18:f0:06:4d:de:52:3f:bd:9d:6e:68:a0:f7:03:91:
        bb:a3:e5:f2:e2:2f:62:de:47:99:a0:46:ab:ec:55:f2:fd:25:
        b2:0b:49:a8:8d:65:34:ad:b7:43:3d:88:58:11:2a:81:b5:a6:
        d2:44:d4:e5:5a:43:c7:3b:61:3d:e4:a1:d2:a1:bf:ba:6e:b2:
        70:4d:c0:bb:ee:bb:05:69:66:02:08:55:1c:c9:d4:1e:4a:a1:
        a6:5b:20:27:42:8b:df:4e:8e:b7:30:1d:46:30:2b:eb:10:18:
        41:85:6d:ec:74:c5:f6:27
-----BEGIN CERTIFICATE-----
MIIG5DCCBMygAwIBAgIUQyDMAqAYEGjHiaAoVxPwAL9QWmAwDQYJKoZIhvcNAQEL
BQAweDELMAkGA1UEBhMCVVMxFzAVBgNVBAgMDk5vcnRoIENhcm9saW5hMRAwDgYD
VQQHDAdSYWxlaWdoMRAwDgYDVQQKDAdLYXRlbGxvMRQwEgYDVQQLDAtTb21lT3Jn
VW5pdDEWMBQGA1UEAwwNc2F0ZWxsaXRlLmxhYjAeFw0yNTAyMjUyMDIzNTZaFw0z
ODAxMTcyMDIzNTdaMGYxCzAJBgNVBAYTAlVTMRcwFQYDVQQIDA5Ob3J0aCBDYXJv
bGluYTEQMA4GA1UECgwHS2F0ZWxsbzEUMBIGA1UECwwLU29tZU9yZ1VuaXQxFjAU
BgNVBAMMDXNhdGVsbGl0ZS5sYWIwggIiMA0GCSqGSIb3DQEBAQUAA4ICDwAwggIK
AoICAQCyVb/CNfHezYW0+72H3oxKH7t75UeiBQdarTK80vEEgCSrT8KVqKjywXbq
vxl4naJCs9wKL+ckji8ODANeJEtk7sOoaJ9CORqtQG3xUo7BH+QXBt8KCcJn4FFu
DI+mqrZ3dGFcGcN9cVgEBgzVTkGMJWEHhUeHt1iEa/51Qv4u7xSTvgZX8HWjkv3I
oGYVYBMDKabn57hW6YJZ8J+P3QtVQswHjS3kGFBqAIIcWQN1DuwL5cCimBBUDolu
pDOjflvX/Lw219hlqTkfi8PMh/k2XyAEcoMsXnvha84VcMEmUHs3FRInUU8YFZaB
iWwCodWtUHkiVsnHkcq7GJ8yKGMmfUYJ8fptbSe1iJNudX4VfwiIxKjFoWy/AN7h
Q5Hm600IVAD2HdC6U+U7HgRxk4xiHnSTNXSMe1qqQYxZChsTzeI4Tadqr8ieQDL4
I21jfkc0R9TRn6zWzHLcQR/vCQ2PQN/2FSCsb+5EOCon2a8mKSvvPkogCAqWVmKk
mB13UWPDU99mfyzwa26B2JdI1CuGR5UNT+pE9ujmyGuTpZqJpJmU1wnp4H9EfdZc
H9bEu5LK9UwFuNI+uJKBdkviMkAy38EHq0hEL3tSfFntEPpwcOvLXljCc0/qm38M
gVie9qO+lFA721bib5UypzDy2ACAOim3/hYmV2HZmNChQ/qNPQIDAQABo4IBdjCC
AXIwCQYDVR0TBAIwADALBgNVHQ8EBAMCBaAwHQYDVR0lBBYwFAYIKwYBBQUHAwEG
CCsGAQUFBwMCMBEGCWCGSAGG+EIBAQQEAwIGQDA1BglghkgBhvhCAQ0EKBYmS2F0
ZWxsbyBTU0wgVG9vbCBHZW5lcmF0ZWQgQ2VydGlmaWNhdGUwHQYDVR0OBBYEFP9Z
Qt6OPLCMICpN/ExmnVQCQBgeMIG1BgNVHSMEga0wgaqAFFctHagLNOmZY/vB4op+
4ZSbmArUoXykejB4MQswCQYDVQQGEwJVUzEXMBUGA1UECAwOTm9ydGggQ2Fyb2xp
bmExEDAOBgNVBAcMB1JhbGVpZ2gxEDAOBgNVBAoMB0thdGVsbG8xFDASBgNVBAsM
C1NvbWVPcmdVbml0MRYwFAYDVQQDDA1zYXRlbGxpdGUubGFighRDIMwCoBgQaMeJ
oChXE/AAv1BaXzAYBgNVHREEETAPgg1zYXRlbGxpdGUubGFiMA0GCSqGSIb3DQEB
CwUAA4ICAQBuHRBaCkv8GtU21p/5gLNBiHgossL9MV2ajNkwp/8cHchHogBUsEFF
uD8w3QLP3QUuwHOq/RYoiItf2ZubN9KwUEFEWPVHKX1ooDCcqVWkXGBuohXi3jgM
Sfu5A8Xya4/hnJJAUsAwPCy0o53UvOK7BH+LORqX+54A4H3xSRPG3VjFBGO+m6+c
7L9VFrpD8C2hJIntTQXLwiKBTjFGlzgR6Nllz4rtTVAik4QW5atw1t3X2g3avNdq
v3+jvbwLIx/L6kPKO65Wo2/GEIhALRlswWqvskFaOF+enbjLj02IvQRfUMi1hqOS
1UodZjaKo8Fp8HETI+/2UoER94p26THct3l0OVmq/wX1vIwIS0t830kvBiO05nxL
i5UcIoG4GUc2Iy46Ntq3hhy3aVj3mcdEz2nVcuxcLnrxkfgr0ES+RT6foH5K1jxY
ZfjzKDDdfithRQESk+0ClOOZ3XjzaJECM7XFhbVOuFo8wZ3jN3lce9pVV2SSO6ou
/Ud394fpVi4jNEtc6Rl/lAcVwuTfVWEY8AZN3lI/vZ1uaKD3A5G7o+Xy4i9i3keZ
oEar7FXy/SWyC0mojWU0rbdDPYhYESqBtabSRNTlWkPHO2E95KHSob+6brJwTcC7
7rsFaWYCCFUcydQeSqGmWyAnQovfTo63MB1GMCvrEBhBhW3sdMX2Jw==
-----END CERTIFICATE-----
