Certificate:
    Data:
        Version: 3 (0x2)
        Serial Number:
            43:20:cc:02:a0:18:10:68:c7:89:a0:28:57:13:f0:00:bf:50:5a:64
        Signature Algorithm: sha256WithRSAEncryption
        Issuer: C=US, ST=North Carolina, L=Raleigh, O=Katello, OU=SomeOrgUnit, CN=satellite.lab
        Validity
            Not Before: Feb 25 20:23:59 2025 GMT
            Not After : Jan 17 20:24:00 2038 GMT
        Subject: C=US, ST=North Carolina, O=FOREMAN, OU=FOREMAN_PROXY, CN=satellite.lab
        Subject Public Key Info:
            Public Key Algorithm: rsaEncryption
                Public-Key: (4096 bit)
                Modulus:
                    00:9d:29:82:a2:68:18:05:15:25:9e:24:7e:14:2e:
                    5f:97:1d:6f:8c:e3:fa:52:00:84:7f:fb:a4:e7:43:
                    db:fe:39:a0:f0:55:83:f0:a2:34:e8:86:92:e5:22:
                    86:cb:17:b2:73:0f:30:e0:79:6d:a1:67:75:45:4e:
                    af:d1:69:20:5d:9d:7a:e1:21:00:fe:52:29:af:0f:
                    7f:f1:ee:c1:b9:9a:f9:40:ce:e9:4f:a2:0b:ce:95:
                    3c:03:86:16:78:a5:35:75:f2:1f:06:ce:5f:5f:30:
                    43:1e:a9:77:ef:47:34:b1:a8:f2:e2:21:57:2f:b0:
                    71:3f:fb:6b:f3:8b:11:c6:87:9c:45:fb:b4:ee:29:
                    57:c9:73:46:08:ac:17:d9:87:7d:eb:b5:7b:c5:d2:
                    7a:15:7f:c0:ca:5f:9b:9a:8a:39:15:d3:14:57:4d:
                    56:5e:b3:d6:3a:85:e4:25:1e:3d:43:f0:cd:83:6a:
                    a2:15:45:1d:e0:2a:5a:3b:8b:b9:41:df:f6:46:43:
                    63:66:36:07:86:28:f8:4f:5a:20:10:c8:5b:79:07:
                    b3:94:cf:ca:86:a8:66:8c:72:7b:d0:b4:fb:80:76:
                    15:ef:fa:b8:9c:d8:5f:27:8b:e6:20:7f:c6:6f:71:
                    b6:a0:55:5d:5d:a6:17:01:22:34:31:ed:a8:49:a6:
                    22:5c:25:df:84:25:46:a6:52:ae:a4:30:36:ba:35:
                    35:13:c8:4d:ad:db:1a:7f:f2:13:99:2c:98:9b:8d:
                    76:ee:bb:9c:49:3f:1c:ee:01:b1:4f:0a:d6:35:96:
                    c8:c2:65:3a:8f:53:9b:05:a3:04:fc:98:76:b3:d3:
                    0f:28:02:b7:f2:3f:12:bb:3a:3a:66:47:b0:8b:a7:
                    69:65:1c:63:f4:d4:e6:00:dd:5b:dd:3f:37:fb:2b:
                    13:cb:8e:30:e4:01:9e:b4:45:a2:7c:94:01:8c:42:
                    0d:d7:cb:19:86:ad:68:a6:0c:d0:44:f2:82:1a:3e:
                    b2:9f:44:7d:75:dd:8f:32:a9:07:28:9f:ba:2c:db:
                    02:ea:d5:74:f2:24:aa:bf:2f:b5:af:c3:63:f9:3f:
                    e6:36:8e:5c:3c:e8:cd:04:b5:2d:86:20:cb:3e:c7:
                    0e:fe:34:a6:5f:e3:32:ca:c6:32:4f:a0:a2:72:f8:
                    12:6c:05:0e:4f:39:ee:90:5f:f9:0e:7d:ac:a7:fc:
                    92:25:76:88:08:16:fb:22:54:73:93:43:d1:05:00:
                    f3:87:ed:f8:39:e8:cd:e9:10:3f:16:00:15:d6:cb:
                    46:a7:a6:37:de:b5:ea:a3:a8:ca:c5:a1:f3:13:bb:
                    17:f2:1f:60:5c:0e:d9:c1:31:d4:87:d6:af:7b:99:
                    4f:2a:17
                Exponent: 65537 (0x10001)
        X509v3 extensions:
            X509v3 Basic Constraints: 
                CA:FALSE
            X509v3 Key Usage: 
                Digital Signature, Key Encipherment
            X509v3 Extended Key Usage: 
                TLS Web Server Authentication, TLS Web Client Authentication
            Netscape Cert Type: 
                SSL Client
            Netscape Comment: 
                Katello SSL Tool Generated Certificate
            X509v3 Subject Key Identifier: 
                75:6E:8A:46:26:FA:76:5E:87:A8:EC:5B:E8:BB:84:77:FF:63:74:BE
            X509v3 Authority Key Identifier: 
                keyid:57:2D:1D:A8:0B:34:E9:99:63:FB:C1:E2:8A:7E:E1:94:9B:98:0A:D4
                DirName:/C=US/ST=North Carolina/L=Raleigh/O=Katello/OU=SomeOrgUnit/CN=satellite.lab
                serial:43:20:CC:02:A0:18:10:68:C7:89:A0:28:57:13:F0:00:BF:50:5A:5F
            X509v3 Subject Alternative Name: 
                DNS:satellite.lab
    Signature Algorithm: sha256WithRSAEncryption
    Signature Value:
        4e:26:dd:dd:5c:84:6f:cb:6d:b7:83:ea:99:20:ba:cc:84:5d:
        ac:12:cc:8b:fc:e8:1b:20:3e:75:c9:1d:26:02:49:95:34:3b:
        24:d2:71:37:95:fd:fb:a5:8f:ba:1a:5d:79:87:cf:58:d2:d2:
        cb:49:b3:28:b0:ca:40:e1:1f:48:b3:5d:30:94:9f:a3:e8:df:
        5a:e4:e5:54:ce:74:40:fb:f0:e8:b8:a8:2b:b7:a0:25:1f:35:
        06:90:7c:2e:2d:8f:60:28:18:10:79:c4:5c:2b:c6:46:a8:35:
        e1:77:a2:d4:e2:93:ef:48:92:fd:42:49:fc:c1:e2:ac:c1:7f:
        b4:eb:3b:0e:cd:ca:12:07:0c:38:58:cb:93:1e:bc:fa:8e:e5:
        80:8f:2a:1e:ac:7a:3f:5c:10:e0:75:97:27:77:9d:11:d2:96:
        3c:c6:4b:6e:31:a7:84:b1:49:7d:77:ce:52:7e:ee:19:ad:77:
        29:34:d5:f4:8c:0d:16:aa:4e:d2:11:90:86:b3:c2:80:d1:a4:
        11:27:23:73:20:93:7a:8c:7f:84:39:0f:f0:f0:08:4a:93:73:
        f5:80:a9:80:b8:a7:ad:83:1b:2f:e4:0a:05:c2:3a:27:b1:80:
        e0:7f:58:34:4f:54:af:57:58:09:2b:0a:5c:22:e1:b8:7b:7c:
        3e:fc:83:77:fb:f9:82:23:28:8a:0e:98:04:31:8c:2b:19:79:
        4c:6c:11:6c:b6:50:20:7b:9f:7b:d3:7b:1a:ae:4a:fe:57:ad:
        59:80:9e:6b:95:5b:a4:00:d4:af:06:11:e2:88:69:92:45:52:
        e9:1c:d0:78:04:a0:58:7a:fd:ed:fc:1f:46:94:c1:46:af:9d:
        65:b9:56:2a:b6:fa:a1:1a:8f:04:e5:1a:a5:80:b5:b0:f9:61:
        c9:52:14:1e:9b:fa:c2:cc:0d:a7:7c:7d:0b:5a:30:60:9c:6e:
        26:be:bc:f4:c5:8d:e7:ee:e5:46:f8:65:9c:3d:9e:93:74:9a:
        8a:8f:59:82:25:45:b9:fd:7b:69:8a:10:ca:9e:92:70:30:6d:
        0d:20:66:82:d1:32:f5:4a:c3:a2:3b:25:42:c0:a0:63:e3:31:
        96:e4:39:d7:ef:00:40:15:73:aa:9b:08:27:fa:2b:16:62:44:
        a6:b2:64:81:24:02:2c:7f:27:e2:56:a6:ef:f8:cc:c5:62:74:
        2c:e5:6c:3a:a5:14:80:d6:e9:4d:e2:5a:0c:e5:84:3d:fc:ac:
        c2:a2:d9:bc:43:e6:49:d7:99:71:a7:92:1a:9c:1f:d2:95:93:
        96:19:05:ad:30:34:cb:85:5c:66:07:05:48:e1:b7:20:90:dd:
        37:63:ca:5e:25:b8:9d:af
-----BEGIN CERTIFICATE-----
MIIG5jCCBM6gAwIBAgIUQyDMAqAYEGjHiaAoVxPwAL9QWmQwDQYJKoZIhvcNAQEL
BQAweDELMAkGA1UEBhMCVVMxFzAVBgNVBAgMDk5vcnRoIENhcm9saW5hMRAwDgYD
VQQHDAdSYWxlaWdoMRAwDgYDVQQKDAdLYXRlbGxvMRQwEgYDVQQLDAtTb21lT3Jn
VW5pdDEWMBQGA1UEAwwNc2F0ZWxsaXRlLmxhYjAeFw0yNTAyMjUyMDIzNTlaFw0z
ODAxMTcyMDI0MDBaMGgxCzAJBgNVBAYTAlVTMRcwFQYDVQQIDA5Ob3J0aCBDYXJv
bGluYTEQMA4GA1UECgwHRk9SRU1BTjEWMBQGA1UECwwNRk9SRU1BTl9QUk9YWTEW
MBQGA1UEAwwNc2F0ZWxsaXRlLmxhYjCCAiIwDQYJKoZIhvcNAQEBBQADggIPADCC
AgoCggIBAJ0pgqJoGAUVJZ4kfhQuX5cdb4zj+lIAhH/7pOdD2/45oPBVg/CiNOiG
kuUihssXsnMPMOB5baFndUVOr9FpIF2deuEhAP5SKa8Pf/Huwbma+UDO6U+iC86V
PAOGFnilNXXyHwbOX18wQx6pd+9HNLGo8uIhVy+wcT/7a/OLEcaHnEX7tO4pV8lz
RgisF9mHfeu1e8XSehV/wMpfm5qKORXTFFdNVl6z1jqF5CUePUPwzYNqohVFHeAq
WjuLuUHf9kZDY2Y2B4Yo+E9aIBDIW3kHs5TPyoaoZoxye9C0+4B2Fe/6uJzYXyeL
5iB/xm9xtqBVXV2mFwEiNDHtqEmmIlwl34QlRqZSrqQwNro1NRPITa3bGn/yE5ks
mJuNdu67nEk/HO4BsU8K1jWWyMJlOo9TmwWjBPyYdrPTDygCt/I/Ers6OmZHsIun
aWUcY/TU5gDdW90/N/srE8uOMOQBnrRFonyUAYxCDdfLGYataKYM0ETygho+sp9E
fXXdjzKpByifuizbAurVdPIkqr8vta/DY/k/5jaOXDzozQS1LYYgyz7HDv40pl/j
MsrGMk+gonL4EmwFDk857pBf+Q59rKf8kiV2iAgW+yJUc5ND0QUA84ft+DnozekQ
PxYAFdbLRqemN9616qOoysWh8xO7F/IfYFwO2cEx1IfWr3uZTyoXAgMBAAGjggF2
MIIBcjAJBgNVHRMEAjAAMAsGA1UdDwQEAwIFoDAdBgNVHSUEFjAUBggrBgEFBQcD
AQYIKwYBBQUHAwIwEQYJYIZIAYb4QgEBBAQDAgeAMDUGCWCGSAGG+EIBDQQoFiZL
YXRlbGxvIFNTTCBUb29sIEdlbmVyYXRlZCBDZXJ0aWZpY2F0ZTAdBgNVHQ4EFgQU
dW6KRib6dl6HqOxb6LuEd/9jdL4wgbUGA1UdIwSBrTCBqoAUVy0dqAs06Zlj+8Hi
in7hlJuYCtShfKR6MHgxCzAJBgNVBAYTAlVTMRcwFQYDVQQIDA5Ob3J0aCBDYXJv
bGluYTEQMA4GA1UEBwwHUmFsZWlnaDEQMA4GA1UECgwHS2F0ZWxsbzEUMBIGA1UE
CwwLU29tZU9yZ1VuaXQxFjAUBgNVBAMMDXNhdGVsbGl0ZS5sYWKCFEMgzAKgGBBo
x4mgKFcT8AC/UFpfMBgGA1UdEQQRMA+CDXNhdGVsbGl0ZS5sYWIwDQYJKoZIhvcN
AQELBQADggIBAE4m3d1chG/LbbeD6pkgusyEXawSzIv86BsgPnXJHSYCSZU0OyTS
cTeV/fulj7oaXXmHz1jS0stJsyiwykDhH0izXTCUn6Po31rk5VTOdED78Oi4qCu3
oCUfNQaQfC4tj2AoGBB5xFwrxkaoNeF3otTik+9Ikv1CSfzB4qzBf7TrOw7NyhIH
DDhYy5MevPqO5YCPKh6sej9cEOB1lyd3nRHSljzGS24xp4SxSX13zlJ+7hmtdyk0
1fSMDRaqTtIRkIazwoDRpBEnI3Mgk3qMf4Q5D/DwCEqTc/WAqYC4p62DGy/kCgXC
OiexgOB/WDRPVK9XWAkrClwi4bh7fD78g3f7+YIjKIoOmAQxjCsZeUxsEWy2UCB7
n3vTexquSv5XrVmAnmuVW6QA1K8GEeKIaZJFUukc0HgEoFh6/e38H0aUwUavnWW5
Viq2+qEajwTlGqWAtbD5YclSFB6b+sLMDad8fQtaMGCcbia+vPTFjefu5Ub4ZZw9
npN0moqPWYIlRbn9e2mKEMqeknAwbQ0gZoLRMvVKw6I7JULAoGPjMZbkOdfvAEAV
c6qbCCf6KxZiRKayZIEkAix/J+JWpu/4zMVidCzlbDqlFIDW6U3iWgzlhD38rMKi
2bxD5knXmXGnkhqcH9KVk5YZBa0wNMuFXGYHBUjhtyCQ3Tdjyl4luJ2v
-----END CERTIFICATE-----
